(iForward_Kinematics
Forward_Kinematics
p0
(dp1
S'q1'
p2
csympy.core.symbol
Symbol
p3
(S'q1'
p4
tp5
Rp6
(dp7
S'_assumptions'
p8
ccopy_reg
_reconstructor
p9
(csympy.core.assumptions
StdFactKB
p10
c__builtin__
dict
p11
(dp12
S'real'
p13
NsS'zero'
p14
NsS'complex'
p15
NsS'commutative'
p16
I01
sS'rational'
p17
NsS'positive'
p18
NsS'negative'
p19
Nstp20
Rp21
(dp22
S'_generator'
p23
(dp24
sbsbsS'q3'
p25
g3
(S'q3'
p26
tp27
Rp28
(dp29
g8
g9
(g10
g11
(dp30
g13
Nsg14
Nsg15
Nsg16
I01
sg17
Nsg18
Nsg19
Nstp31
Rp32
(dp33
g23
(dp34
sbsbsS'q2'
p35
g3
(S'q2'
p36
tp37
Rp38
(dp39
g8
g9
(g10
g11
(dp40
g13
NsS'irrational'
p41
NsS'antihermitian'
p42
NsS'nonpositive'
p43
NsS'algebraic'
p44
NsS'hermitian'
p45
NsS'infinite'
p46
NsS'integer'
p47
NsS'imaginary'
p48
NsS'odd'
p49
NsS'even'
p50
Nsg16
I01
sg14
Nsg18
Nsg19
NsS'nonnegative'
p51
Nsg15
Nsg17
NsS'finite'
p52
Nstp53
Rp54
(dp55
g23
(dp56
sbsbsS'T0_1'
p57
g9
(csympy.matrices.dense
MutableDenseMatrix
p58
c__builtin__
object
p59
Ntp60
Rp61
(dp62
S'rows'
p63
I4
sS'_mat'
p64
(lp65
csympy.functions.elementary.trigonometric
cos
p66
(g6
tp67
Rp68
(dp69
bacsympy.core.mul
Mul
p70
(csympy.core.numbers
NegativeOne
p71
(I-1
tp72
Rp73
(dp74
bcsympy.functions.elementary.trigonometric
sin
p75
(g6
tp76
Rp77
(dp78
btp79
Rp80
(dp81
bacsympy.core.numbers
Zero
p82
(I0
tp83
Rp84
(dp85
bag84
ag77
ag68
ag84
ag84
ag84
ag84
acsympy.core.numbers
One
p86
(I1
tp87
Rp88
(dp89
bacsympy.core.numbers
Float
p90
((I0
S'3L'
p91
I-2
I2
tp92
tp93
Rp94
(dp95
S'_prec'
p96
I53
sbag84
ag84
ag84
ag88
asS'cols'
p97
I4
sbsS'q4'
p98
g3
(S'q4'
p99
tp100
Rp101
(dp102
g8
g9
(g10
g11
(dp103
g13
Nsg14
Nsg15
Nsg16
I01
sg17
Nsg18
Nsg19
Nstp104
Rp105
(dp106
g23
(dp107
sbsbsS'q6'
p108
g3
(S'q6'
p109
tp110
Rp111
(dp112
g8
g9
(g10
g11
(dp113
g13
Nsg14
Nsg15
Nsg16
I01
sg17
Nsg18
Nsg19
Nstp114
Rp115
(dp116
g23
(dp117
sbsbsS'T2_3'
p118
g9
(g58
g59
Ntp119
Rp120
(dp121
g63
I4
sg64
(lp122
g66
(g28
tp123
Rp124
(dp125
bag70
(g73
g75
(g28
tp126
Rp127
(dp128
btp129
Rp130
(dp131
bag84
ag90
((I0
S'5L'
p132
I-2
I3
tp133
tp134
Rp135
(dp136
g96
I53
sbag127
ag124
ag84
ag84
ag84
ag84
ag88
ag84
ag84
ag84
ag84
ag88
asg97
I4
sbsS'q5'
p137
g3
(S'q5'
p138
tp139
Rp140
(dp141
g8
g9
(g10
g11
(dp142
g13
Nsg14
Nsg15
Nsg16
I01
sg17
Nsg18
Nsg19
Nstp143
Rp144
(dp145
g23
(dp146
sbsbsS'T0_EE'
p147
g9
(g58
g59
Ntp148
Rp149
(dp150
g63
I4
sg64
(lp151
csympy.core.add
Add
p152
(g70
(g152
(g70
(g152
(g70
(g152
(g70
(g68
g124
g66
(g152
(g38
g70
(g90
((I1
S'1L'
p153
I-1
I1
tp154
tp155
Rp156
(dp157
g96
I53
sbcsympy.core.numbers
Pi
p158
(tRp159
(dp160
btp161
Rp162
(dp163
btp164
Rp165
(dp166
btp167
Rp168
(dp169
btp170
Rp171
(dp172
bg70
(g73
g68
g127
g75
(g165
tp173
Rp174
(dp175
btp176
Rp177
(dp178
btp179
Rp180
(dp181
bg66
(g101
tp182
Rp183
(dp184
btp185
Rp186
(dp187
bg70
(g77
g75
(g101
tp188
Rp189
(dp190
btp191
Rp192
(dp193
btp194
Rp195
(dp196
bg66
(g140
tp197
Rp198
(dp199
btp200
Rp201
(dp202
bg70
(g152
(g70
(g73
g68
g124
g174
tp203
Rp204
(dp205
bg70
(g73
g68
g168
g127
tp206
Rp207
(dp208
btp209
Rp210
(dp211
bg75
(g140
tp212
Rp213
(dp214
btp215
Rp216
(dp217
btp218
Rp219
(dp220
bg66
(g111
tp221
Rp222
(dp223
btp224
Rp225
(dp226
bg70
(g73
g152
(g70
(g180
g189
tp227
Rp228
(dp229
bg70
(g73
g183
g77
tp230
Rp231
(dp232
btp233
Rp234
(dp235
bg75
(g111
tp236
Rp237
(dp238
btp239
Rp240
(dp241
btp242
Rp243
(dp244
bag152
(g70
(g73
g219
g237
tp245
Rp246
(dp247
bg70
(g73
g234
g222
tp248
Rp249
(dp250
btp251
Rp252
(dp253
bag152
(g70
(g210
g198
tp254
Rp255
(dp256
bg70
(g73
g195
g213
tp257
Rp258
(dp259
btp260
Rp261
(dp262
bag152
(g70
(g90
((I0
S'b333333333333L'
p263
I-53
I52
tp264
tp265
Rp266
(dp267
g96
I53
sbg68
tp268
Rp269
(dp270
bg70
(g90
((I0
S'5L'
p271
I-2
I3
tp272
tp273
Rp274
(dp275
g96
I53
sbg68
g168
tp276
Rp277
(dp278
bg70
(g90
((I0
S'13645a1cac0831L'
p279
I-54
I53
tp280
tp281
Rp282
(dp283
g96
I53
sbg210
g198
tp284
Rp285
(dp286
bg70
(g90
((I1
S'13645a1cac0831L'
p287
I-54
I53
tp288
tp289
Rp290
(dp291
g96
I53
sbg195
g213
tp292
Rp293
(dp294
bg70
(g90
((I0
S'1ba5e353f7ced9L'
p295
I-57
I53
tp296
tp297
Rp298
(dp299
g96
I53
sbg68
g127
g174
tp300
Rp301
(dp302
bg70
(g90
((I1
S'3L'
p303
I-1
I2
tp304
tp305
Rp306
(dp307
g96
I53
sbg68
g124
g174
tp308
Rp309
(dp310
bg70
(g90
((I1
S'3L'
p311
I-1
I2
tp312
tp313
Rp314
(dp315
g96
I53
sbg68
g168
g127
tp316
Rp317
(dp318
bg70
(g90
((I1
S'1ba5e353f7ced9L'
p319
I-57
I53
tp320
tp321
Rp322
(dp323
g96
I53
sbg68
g124
g168
tp324
Rp325
(dp326
btp327
Rp328
(dp329
bag152
(g70
(g152
(g70
(g152
(g70
(g152
(g70
(g124
g168
g77
tp330
Rp331
(dp332
bg70
(g73
g77
g127
g174
tp333
Rp334
(dp335
btp336
Rp337
(dp338
bg183
tp339
Rp340
(dp341
bg70
(g73
g68
g189
tp342
Rp343
(dp344
btp345
Rp346
(dp347
bg198
tp348
Rp349
(dp350
bg70
(g152
(g70
(g73
g124
g77
g174
tp351
Rp352
(dp353
bg70
(g73
g168
g77
g127
tp354
Rp355
(dp356
btp357
Rp358
(dp359
bg213
tp360
Rp361
(dp362
btp363
Rp364
(dp365
bg222
tp366
Rp367
(dp368
bg70
(g73
g152
(g70
(g337
g189
tp369
Rp370
(dp371
bg70
(g68
g183
tp372
Rp373
(dp374
btp375
Rp376
(dp377
bg237
tp378
Rp379
(dp380
btp381
Rp382
(dp383
bag152
(g70
(g73
g364
g237
tp384
Rp385
(dp386
bg70
(g73
g376
g222
tp387
Rp388
(dp389
btp390
Rp391
(dp392
bag152
(g70
(g358
g198
tp393
Rp394
(dp395
bg70
(g73
g346
g213
tp396
Rp397
(dp398
btp399
Rp400
(dp401
bag152
(g70
(g90
((I0
S'b333333333333L'
p402
I-53
I52
tp403
tp404
Rp405
(dp406
g96
I53
sbg77
tp407
Rp408
(dp409
bg70
(g90
((I0
S'5L'
p410
I-2
I3
tp411
tp412
Rp413
(dp414
g96
I53
sbg168
g77
tp415
Rp416
(dp417
bg70
(g90
((I0
S'13645a1cac0831L'
p418
I-54
I53
tp419
tp420
Rp421
(dp422
g96
I53
sbg358
g198
tp423
Rp424
(dp425
bg70
(g90
((I1
S'13645a1cac0831L'
p426
I-54
I53
tp427
tp428
Rp429
(dp430
g96
I53
sbg346
g213
tp431
Rp432
(dp433
bg70
(g90
((I0
S'1ba5e353f7ced9L'
p434
I-57
I53
tp435
tp436
Rp437
(dp438
g96
I53
sbg77
g127
g174
tp439
Rp440
(dp441
bg70
(g90
((I1
S'3L'
p442
I-1
I2
tp443
tp444
Rp445
(dp446
g96
I53
sbg124
g77
g174
tp447
Rp448
(dp449
bg70
(g90
((I1
S'3L'
p450
I-1
I2
tp451
tp452
Rp453
(dp454
g96
I53
sbg168
g77
g127
tp455
Rp456
(dp457
bg70
(g90
((I1
S'1ba5e353f7ced9L'
p458
I-57
I53
tp459
tp460
Rp461
(dp462
g96
I53
sbg124
g168
g77
tp463
Rp464
(dp465
btp466
Rp467
(dp468
bag152
(g70
(g152
(g70
(g152
(g70
(g127
g174
tp469
Rp470
(dp471
bg70
(g73
g124
g168
tp472
Rp473
(dp474
btp475
Rp476
(dp477
bg213
tp478
Rp479
(dp480
bg70
(g152
(g70
(g73
g124
g174
tp481
Rp482
(dp483
bg70
(g73
g168
g127
tp484
Rp485
(dp486
btp487
Rp488
(dp489
bg183
g198
tp490
Rp491
(dp492
btp493
Rp494
(dp495
bg222
tp496
Rp497
(dp498
bg70
(g73
g488
g189
g237
tp499
Rp500
(dp501
btp502
Rp503
(dp504
bag152
(g70
(g73
g494
g237
tp505
Rp506
(dp507
bg70
(g73
g488
g222
g189
tp508
Rp509
(dp510
btp511
Rp512
(dp513
bag152
(g70
(g476
g198
tp514
Rp515
(dp516
bg70
(g73
g488
g183
g213
tp517
Rp518
(dp519
btp520
Rp521
(dp522
bag152
(g90
((I0
S'3L'
p523
I-2
I2
tp524
tp525
Rp526
(dp527
g96
I53
sbg70
(g90
((I1
S'5L'
p528
I-2
I3
tp529
tp530
Rp531
(dp532
g96
I53
sbg174
tp533
Rp534
(dp535
bg70
(g90
((I0
S'3L'
p536
I-1
I2
tp537
tp538
Rp539
(dp540
g96
I53
sbg127
g174
tp541
Rp542
(dp543
bg70
(g90
((I0
S'13645a1cac0831L'
p544
I-54
I53
tp545
tp546
Rp547
(dp548
g96
I53
sbg476
g198
tp549
Rp550
(dp551
bg70
(g90
((I0
S'1ba5e353f7ced9L'
p552
I-57
I53
tp553
tp554
Rp555
(dp556
g96
I53
sbg124
g174
tp557
Rp558
(dp559
bg70
(g90
((I0
S'1ba5e353f7ced9L'
p560
I-57
I53
tp561
tp562
Rp563
(dp564
g96
I53
sbg168
g127
tp565
Rp566
(dp567
bg70
(g90
((I1
S'3L'
p568
I-1
I2
tp569
tp570
Rp571
(dp572
g96
I53
sbg124
g168
tp573
Rp574
(dp575
bg70
(g90
((I1
S'13645a1cac0831L'
p576
I-54
I53
tp577
tp578
Rp579
(dp580
g96
I53
sbg488
g183
g213
tp581
Rp582
(dp583
btp584
Rp585
(dp586
bag84
ag84
ag84
ag88
asg97
I4
sbsS'T1_2'
p587
g9
(g58
g59
Ntp588
Rp589
(dp590
g63
I4
sg64
(lp591
g168
ag70
(g73
g174
tp592
Rp593
(dp594
bag84
ag90
((I0
S'b333333333333L'
p595
I-53
I52
tp596
tp597
Rp598
(dp599
g96
I53
sbag84
ag84
ag88
ag84
ag593
ag70
(g73
g168
tp600
Rp601
(dp602
bag84
ag84
ag84
ag84
ag84
ag88
asg97
I4
sbsb.